

Microchip Technology PIC18 LITE Macro Assembler V1.30 build 55553 
                                                                                               Thu Apr 06 23:30:06 2017

Microchip Technology Omniscient Code Generator (Lite mode) build 55553
     1                           	processor	18F46K22
     2                           	fnconf	rparam,??,?,0
     3                           	opt	pw 120
     4                           	opt	lm
     5                           	psect	text0,global,reloc=2,class=CODE,delta=1
     6                           	psect	cinit,global,reloc=2,class=CODE,delta=1
     7                           	psect	bssCOMRAM,global,class=COMRAM,space=1,delta=1
     8                           	psect	cstackCOMRAM,global,class=COMRAM,space=1,delta=1
     9                           	psect	text1,global,reloc=2,class=CODE,delta=1
    10                           	psect	text2,global,reloc=2,class=CODE,delta=1
    11                           	psect	text3,global,reloc=2,class=CODE,delta=1
    12                           	psect	text4,global,reloc=2,class=CODE,delta=1
    13                           	psect	text5,global,reloc=2,class=CODE,delta=1
    14                           	psect	text6,global,reloc=2,class=CODE,delta=1
    15                           	psect	text7,global,reloc=2,class=CODE,delta=1
    16                           	psect	text8,global,reloc=2,class=CODE,delta=1
    17                           	psect	text9,global,reloc=2,class=CODE,delta=1
    18                           	psect	intcode,global,reloc=2,class=CODE,delta=1
    19                           	psect	text11,global,reloc=2,class=CODE,delta=1
    20                           	psect	text12,global,reloc=2,class=CODE,delta=1
    21                           	psect	intsave_regs,global,class=BIGRAM,space=1,delta=1
    22                           	psect	rparam,global,class=COMRAM,space=1,delta=1
    23  0000                     _ANSELBbits	set	3897
    24  0000                     _ANSELCbits	set	3898
    25  0000                     _INTCON2bits	set	4081
    26  0000                     _INTCON3bits	set	4080
    27  0000                     _INTCONbits	set	4082
    28  0000                     _LATBbits	set	3978
    29  0000                     _LATD	set	3980
    30  0000                     _OSCCONbits	set	4051
    31  0000                     _PIR1bits	set	3998
    32  0000                     _SSP1BUF	set	4041
    33  0000                     _SSP1CON1bits	set	4038
    34  0000                     _SSP1STATbits	set	4039
    35  0000                     _TRISAbits	set	3986
    36  0000                     _TRISBbits	set	3987
    37  0000                     _TRISCbits	set	3988
    38  0000                     _TRISD	set	3989
    39                           
    40 ;;
    41 ;;Main: autosize = 0, tempsize = 1, incstack = 0, save=0
    42 ;;
    43 ;; *************** function _main *****************
    44 ;; Defined at:
    45 ;;		line 109 in file "main.c"
    46 ;; Parameters:    Size  Location     Type
    47 ;;		None
    48 ;; Auto vars:     Size  Location     Type
    49 ;;  payload        16   30[COMRAM] unsigned char [16]
    50 ;;  zaehler         1   47[COMRAM] unsigned char 
    51 ;;  nRF_status      1   46[COMRAM] unsigned char 
    52 ;; Return value:  Size  Location     Type
    53 ;;                  2   38[COMRAM] int 
    54 ;; Registers used:
    55 ;;		wreg, fsr0l, fsr0h, fsr1l, fsr1h, fsr1l, fsr1h, fsr2l, fsr2h, status,2, status,0, pclat, btemp, btemp+1, btemp+2, bt
      +emp+3, btemp+4, btemp+5, btemp+6, btemp+7, btemp+8, btemp+9, btemp+10, btemp+11, tosl, structret, tblptrl, tblptrh, tblp
      +tru, prodl, prodh, bsr, cstack
    56 ;; Tracked objects:
    57 ;;		On entry : 0/0
    58 ;;		On exit  : 0/0
    59 ;;		Unchanged: 0/0
    60 ;; Data sizes:     COMRAM   BANK0   BANK1   BANK2   BANK3   BANK4   BANK5   BANK6   BANK7   BANK8   BANK9  BANK10  BANK1
      +1  BANK12  BANK13  BANK14  BANK15
    61 ;;      Params:         0       0       0       0       0       0       0       0       0       0       0       0       
      +0       0       0       0       0
    62 ;;      Locals:        18       0       0       0       0       0       0       0       0       0       0       0       
      +0       0       0       0       0
    63 ;;      Temps:          1       0       0       0       0       0       0       0       0       0       0       0       
      +0       0       0       0       0
    64 ;;      Totals:        19       0       0       0       0       0       0       0       0       0       0       0       
      +0       0       0       0       0
    65 ;;Total ram usage:       19 bytes
    66 ;; Hardware stack levels required when called:    6
    67 ;; This function calls:
    68 ;;		__delay_10ms
    69 ;;		_wl_module_config
    70 ;;		_wl_module_data_ready
    71 ;;		_wl_module_get_data
    72 ;;		_wl_module_init
    73 ;; This function is called by:
    74 ;;		Startup code after reset
    75 ;; This function uses a non-reentrant model
    76 ;;
    77                           
    78                           	psect	text0
    79  0000D2                     __ptext0:
    80                           	opt stack 0
    81  0000D2                     _main:
    82                           	opt stack 25
    83                           
    84                           ;main.c: 110: unsigned char payload[16];
    85                           ;main.c: 111: unsigned char nRF_status;
    86                           ;main.c: 112: unsigned char zaehler = 0;
    87                           
    88                           ;incstack = 0
    89  0000D2  6E1E               	movwf	??_main& (0+255),c
    90  0000D4  0E00               	movlw	0
    91  0000D6  6E30               	movwf	main@zaehler,c
    92  0000D8  501E               	movf	??_main& (0+255),w,c
    93                           
    94                           ;main.c: 114: OSCCONbits.IRCF = 0b111;
    95  0000DA  88D3               	bsf	4051,4,c	;volatile
    96  0000DC  8AD3               	bsf	4051,5,c	;volatile
    97  0000DE  8CD3               	bsf	4051,6,c	;volatile
    98                           
    99                           ;main.c: 116: wl_module_init();
   100  0000E0  EC1C  F001         	call	_wl_module_init	;wreg free
   101                           
   102                           ;main.c: 117: _delay_10ms(5);
   103  0000E4  0E00               	movlw	0
   104  0000E6  6E15               	movwf	__delay_10ms@length+1,c
   105  0000E8  0E05               	movlw	5
   106  0000EA  6E14               	movwf	__delay_10ms@length,c
   107  0000EC  ECFE  F000         	call	__delay_10ms	;wreg free
   108                           
   109                           ;main.c: 120: TRISD &= ~(0x0F);
   110  0000F0  0EF0               	movlw	240
   111  0000F2  1695               	andwf	3989,f,c	;volatile
   112                           
   113                           ;main.c: 121: LATD |= 0x0F;
   114  0000F4  0E0F               	movlw	15
   115  0000F6  128C               	iorwf	3980,f,c	;volatile
   116                           
   117                           ;main.c: 123: INTCONbits.PEIE = 1;
   118  0000F8  8CF2               	bsf	intcon,6,c	;volatile
   119                           
   120                           ;main.c: 124: INTCONbits.GIE = 1;
   121  0000FA  8EF2               	bsf	intcon,7,c	;volatile
   122                           
   123                           ;main.c: 126: wl_module_config();
   124  0000FC  EC94  F000         	call	_wl_module_config	;wreg free
   125  000100                     l851:
   126  000100  EC0E  F001         	call	_wl_module_data_ready	;wreg free
   127  000104  0900               	iorlw	0
   128  000106  B4D8               	btfsc	status,2,c
   129  000108  D7FB               	goto	l851
   130                           
   131                           ;main.c: 130: nRF_status = wl_module_get_data(payload);
   132  00010A  0E00               	movlw	high main@payload
   133  00010C  6E1B               	movwf	wl_module_get_data@data+1,c
   134  00010E  0E1F               	movlw	low main@payload
   135  000110  6E1A               	movwf	wl_module_get_data@data,c
   136  000112  ECB4  F000         	call	_wl_module_get_data	;wreg free
   137  000116  6E2F               	movwf	main@nRF_status,c
   138                           
   139                           ;main.c: 131: zaehler = payload[0];
   140  000118  C01F  F030         	movff	main@payload,main@zaehler
   141                           
   142                           ;main.c: 132: LATD |= 0x0F;
   143  00011C  0E0F               	movlw	15
   144  00011E  128C               	iorwf	3980,f,c	;volatile
   145                           
   146                           ;main.c: 133: LATD &= ~(payload[0]);
   147  000120  501F               	movf	main@payload,w,c
   148  000122  0AFF               	xorlw	255
   149  000124  168C               	andwf	3980,f,c	;volatile
   150  000126  D7EC               	goto	l851
   151  000128                     __end_of_main:
   152                           	opt stack 0
   153                           intcon	equ	0xFF2
   154                           status	equ	0xFD8
   155                           
   156                           	psect	cinit
   157  000286                     __pcinit:
   158                           	opt stack 0
   159  000286                     start_initialization:
   160                           	opt stack 0
   161  000286                     __initialization:
   162                           	opt stack 0
   163                           
   164                           ; Clear objects allocated to COMRAM (16 bytes)
   165  000286  EE00  F031         	lfsr	0,__pbssCOMRAM
   166  00028A  0E10               	movlw	16
   167  00028C                     clear_0:
   168  00028C  6AEE               	clrf	postinc0,c
   169  00028E  06E8               	decf	wreg,f,c
   170  000290  E1FD               	bnz	clear_0
   171  000292                     end_of_initialization:
   172                           	opt stack 0
   173  000292                     __end_of__initialization:
   174                           	opt stack 0
   175  000292  0E00               	movlw	low (__Lmediumconst shr (0+16))
   176  000294  6EF8               	movwf	tblptru,c
   177  000296  0100               	movlb	0
   178  000298  EF69  F000         	goto	_main	;jump to C main() function
   179                           tblptru	equ	0xFF8
   180                           intcon	equ	0xFF2
   181                           postinc0	equ	0xFEE
   182                           wreg	equ	0xFE8
   183                           status	equ	0xFD8
   184                           
   185                           	psect	bssCOMRAM
   186  000031                     __pbssCOMRAM:
   187                           	opt stack 0
   188  000031                     _received_string:
   189                           	opt stack 0
   190  000031                     	ds	15
   191  000040                     _PTX:
   192                           	opt stack 0
   193  000040                     	ds	1
   194                           tblptru	equ	0xFF8
   195                           intcon	equ	0xFF2
   196                           postinc0	equ	0xFEE
   197                           wreg	equ	0xFE8
   198                           status	equ	0xFD8
   199                           
   200                           	psect	cstackCOMRAM
   201  000001                     __pcstackCOMRAM:
   202                           	opt stack 0
   203  000001                     i2spi_fast_shift@data:
   204                           	opt stack 0
   205                           
   206                           ; 1 bytes @ 0x0
   207  000001                     	ds	1
   208  000002                     i2wl_module_config_register@value:
   209                           	opt stack 0
   210                           
   211                           ; 1 bytes @ 0x1
   212  000002                     	ds	1
   213  000003                     i2wl_module_config_register@reg:
   214                           	opt stack 0
   215                           
   216                           ; 1 bytes @ 0x2
   217  000003                     	ds	1
   218  000004                     ??_ISR:
   219                           
   220                           ; 0 bytes @ 0x3
   221  000004                     	ds	15
   222  000013                     ISR@status:
   223                           	opt stack 0
   224                           
   225                           ; 1 bytes @ 0x12
   226  000013                     	ds	1
   227  000014                     spi_fast_shift@data:
   228                           	opt stack 0
   229  000014                     __delay_10ms@length:
   230                           	opt stack 0
   231  000014                     spi_transfer_sync@dataout:
   232                           	opt stack 0
   233                           
   234                           ; 2 bytes @ 0x13
   235  000014                     	ds	1
   236  000015                     wl_module_data_ready@status:
   237                           	opt stack 0
   238  000015                     wl_module_config_register@value:
   239                           	opt stack 0
   240                           
   241                           ; 1 bytes @ 0x14
   242  000015                     	ds	1
   243  000016                     ??__delay_10ms:
   244  000016                     wl_module_config_register@reg:
   245                           	opt stack 0
   246  000016                     spi_transfer_sync@datain:
   247                           	opt stack 0
   248                           
   249                           ; 2 bytes @ 0x15
   250  000016                     	ds	1
   251  000017                     ??_wl_module_config:
   252                           
   253                           ; 0 bytes @ 0x16
   254  000017                     	ds	1
   255  000018                     spi_transfer_sync@length:
   256                           	opt stack 0
   257                           
   258                           ; 2 bytes @ 0x17
   259  000018                     	ds	2
   260  00001A                     wl_module_get_data@data:
   261                           	opt stack 0
   262                           
   263                           ; 2 bytes @ 0x19
   264  00001A                     	ds	2
   265  00001C                     ??_wl_module_get_data:
   266                           
   267                           ; 0 bytes @ 0x1B
   268  00001C                     	ds	1
   269  00001D                     wl_module_get_data@status:
   270                           	opt stack 0
   271                           
   272                           ; 1 bytes @ 0x1C
   273  00001D                     	ds	1
   274  00001E                     ??_main:
   275                           
   276                           ; 0 bytes @ 0x1D
   277  00001E                     	ds	1
   278  00001F                     main@payload:
   279                           	opt stack 0
   280                           
   281                           ; 16 bytes @ 0x1E
   282  00001F                     	ds	16
   283  00002F                     main@nRF_status:
   284                           	opt stack 0
   285                           
   286                           ; 1 bytes @ 0x2E
   287  00002F                     	ds	1
   288  000030                     main@zaehler:
   289                           	opt stack 0
   290                           
   291                           ; 1 bytes @ 0x2F
   292  000030                     	ds	1
   293                           tblptru	equ	0xFF8
   294                           intcon	equ	0xFF2
   295                           postinc0	equ	0xFEE
   296                           wreg	equ	0xFE8
   297                           status	equ	0xFD8
   298                           
   299 ;; *************** function _wl_module_init *****************
   300 ;; Defined at:
   301 ;;		line 45 in file "wl_module.c"
   302 ;; Parameters:    Size  Location     Type
   303 ;;		None
   304 ;; Auto vars:     Size  Location     Type
   305 ;;		None
   306 ;; Return value:  Size  Location     Type
   307 ;;		None               void
   308 ;; Registers used:
   309 ;;		wreg, fsr0l, fsr0h, fsr1l, fsr1h, fsr1l, fsr1h, fsr2l, fsr2h, status,2, status,0, pclat, btemp, btemp+1, btemp+2, bt
      +emp+3, btemp+4, btemp+5, btemp+6, btemp+7, btemp+8, btemp+9, btemp+10, btemp+11, tosl, structret, tblptrl, tblptrh, tblp
      +tru, prodl, prodh, bsr, cstack
   310 ;; Tracked objects:
   311 ;;		On entry : 0/0
   312 ;;		On exit  : 0/0
   313 ;;		Unchanged: 0/0
   314 ;; Data sizes:     COMRAM   BANK0   BANK1   BANK2   BANK3   BANK4   BANK5   BANK6   BANK7   BANK8   BANK9  BANK10  BANK1
      +1  BANK12  BANK13  BANK14  BANK15
   315 ;;      Params:         0       0       0       0       0       0       0       0       0       0       0       0       
      +0       0       0       0       0
   316 ;;      Locals:         0       0       0       0       0       0       0       0       0       0       0       0       
      +0       0       0       0       0
   317 ;;      Temps:          0       0       0       0       0       0       0       0       0       0       0       0       
      +0       0       0       0       0
   318 ;;      Totals:         0       0       0       0       0       0       0       0       0       0       0       0       
      +0       0       0       0       0
   319 ;;Total ram usage:        0 bytes
   320 ;; Hardware stack levels used:    1
   321 ;; Hardware stack levels required when called:    4
   322 ;; This function calls:
   323 ;;		_spi_init
   324 ;; This function is called by:
   325 ;;		_main
   326 ;; This function uses a non-reentrant model
   327 ;;
   328                           
   329                           	psect	text1
   330  000238                     __ptext1:
   331                           	opt stack 0
   332  000238                     _wl_module_init:
   333                           	opt stack 26
   334                           
   335                           ;wl_module.c: 50: TRISBbits.TRISB4 = 0;
   336                           
   337                           ;incstack = 0
   338  000238  9893               	bcf	3987,4,c	;volatile
   339                           
   340                           ;wl_module.c: 51: TRISBbits.TRISB3 = 0;
   341  00023A  9693               	bcf	3987,3,c	;volatile
   342                           
   343                           ;wl_module.c: 52: LATBbits.LATB3 = 0;;
   344  00023C  968A               	bcf	3978,3,c	;volatile
   345                           
   346                           ;wl_module.c: 53: LATBbits.LATB4 = 1;;
   347  00023E  888A               	bsf	3978,4,c	;volatile
   348                           
   349                           ;wl_module.c: 56: ANSELBbits.ANSB2 = 0;
   350  000240  010F               	movlb	15	; () banked
   351  000242  010F               	movlb	15	; () banked
   352  000244  9539               	bcf	57,2,b	;volatile
   353                           
   354                           ;wl_module.c: 57: TRISBbits.TRISB2 = 1;
   355  000246  8493               	bsf	3987,2,c	;volatile
   356                           
   357                           ;wl_module.c: 58: INTCON2bits.INTEDG2 = 0;
   358  000248  98F1               	bcf	intcon2,4,c	;volatile
   359                           
   360                           ;wl_module.c: 59: INTCON3bits.INT2IE = 1;
   361  00024A  88F0               	bsf	intcon3,4,c	;volatile
   362                           
   363                           ; BSR set to: 15
   364                           ;wl_module.c: 62: spi_init();
   365  00024C  ECED  F000         	call	_spi_init	;wreg free
   366  000250  0012               	return	
   367  000252                     __end_of_wl_module_init:
   368                           	opt stack 0
   369                           tblptru	equ	0xFF8
   370                           intcon	equ	0xFF2
   371                           intcon2	equ	0xFF1
   372                           intcon3	equ	0xFF0
   373                           postinc0	equ	0xFEE
   374                           wreg	equ	0xFE8
   375                           status	equ	0xFD8
   376                           
   377 ;; *************** function _spi_init *****************
   378 ;; Defined at:
   379 ;;		line 11 in file "spi.c"
   380 ;; Parameters:    Size  Location     Type
   381 ;;		None
   382 ;; Auto vars:     Size  Location     Type
   383 ;;		None
   384 ;; Return value:  Size  Location     Type
   385 ;;		None               void
   386 ;; Registers used:
   387 ;;		None
   388 ;; Tracked objects:
   389 ;;		On entry : 0/0
   390 ;;		On exit  : 0/0
   391 ;;		Unchanged: 0/0
   392 ;; Data sizes:     COMRAM   BANK0   BANK1   BANK2   BANK3   BANK4   BANK5   BANK6   BANK7   BANK8   BANK9  BANK10  BANK1
      +1  BANK12  BANK13  BANK14  BANK15
   393 ;;      Params:         0       0       0       0       0       0       0       0       0       0       0       0       
      +0       0       0       0       0
   394 ;;      Locals:         0       0       0       0       0       0       0       0       0       0       0       0       
      +0       0       0       0       0
   395 ;;      Temps:          0       0       0       0       0       0       0       0       0       0       0       0       
      +0       0       0       0       0
   396 ;;      Totals:         0       0       0       0       0       0       0       0       0       0       0       0       
      +0       0       0       0       0
   397 ;;Total ram usage:        0 bytes
   398 ;; Hardware stack levels used:    1
   399 ;; Hardware stack levels required when called:    3
   400 ;; This function calls:
   401 ;;		Nothing
   402 ;; This function is called by:
   403 ;;		_wl_module_init
   404 ;; This function uses a non-reentrant model
   405 ;;
   406                           
   407                           	psect	text2
   408  0001DA                     __ptext2:
   409                           	opt stack 0
   410  0001DA                     _spi_init:
   411                           	opt stack 26
   412                           
   413                           ;spi.c: 13: SSP1CON1bits.SSPEN = 0;
   414                           
   415                           ;incstack = 0
   416  0001DA  9AC6               	bcf	4038,5,c	;volatile
   417                           
   418                           ;spi.c: 15: TRISCbits.TRISC4 = 1;
   419  0001DC  8894               	bsf	3988,4,c	;volatile
   420                           
   421                           ;spi.c: 16: ANSELCbits.ANSC4 = 0;
   422  0001DE  010F               	movlb	15	; () banked
   423  0001E0  010F               	movlb	15	; () banked
   424  0001E2  993A               	bcf	58,4,b	;volatile
   425                           
   426                           ;spi.c: 18: TRISAbits.TRISA5 = 1;
   427  0001E4  8A92               	bsf	3986,5,c	;volatile
   428                           
   429                           ;spi.c: 21: TRISCbits.TRISC5 = 0;
   430  0001E6  9A94               	bcf	3988,5,c	;volatile
   431                           
   432                           ;spi.c: 22: TRISCbits.TRISC3 = 0;
   433  0001E8  9694               	bcf	3988,3,c	;volatile
   434                           
   435                           ;spi.c: 25: SSP1CON1bits.CKP = 0;
   436  0001EA  98C6               	bcf	4038,4,c	;volatile
   437                           
   438                           ;spi.c: 26: SSP1STATbits.CKE = 1;
   439  0001EC  8CC7               	bsf	4039,6,c	;volatile
   440                           
   441                           ;spi.c: 27: SSP1STATbits.SMP = 1;
   442  0001EE  8EC7               	bsf	4039,7,c	;volatile
   443                           
   444                           ;spi.c: 28: SSP1CON1bits.SSPM = 0;
   445  0001F0  90C6               	bcf	4038,0,c	;volatile
   446  0001F2  92C6               	bcf	4038,1,c	;volatile
   447  0001F4  94C6               	bcf	4038,2,c	;volatile
   448  0001F6  96C6               	bcf	4038,3,c	;volatile
   449                           
   450                           ;spi.c: 29: SSP1CON1bits.SSPEN = 1;
   451  0001F8  8AC6               	bsf	4038,5,c	;volatile
   452                           
   453                           ; BSR set to: 15
   454  0001FA  0012               	return	
   455  0001FC                     __end_of_spi_init:
   456                           	opt stack 0
   457                           tblptru	equ	0xFF8
   458                           intcon	equ	0xFF2
   459                           intcon2	equ	0xFF1
   460                           intcon3	equ	0xFF0
   461                           postinc0	equ	0xFEE
   462                           wreg	equ	0xFE8
   463                           status	equ	0xFD8
   464                           
   465 ;; *************** function _wl_module_get_data *****************
   466 ;; Defined at:
   467 ;;		line 427 in file "wl_module.c"
   468 ;; Parameters:    Size  Location     Type
   469 ;;  data            2   25[COMRAM] PTR unsigned char 
   470 ;;		 -> main@payload(16), 
   471 ;; Auto vars:     Size  Location     Type
   472 ;;  status          1   28[COMRAM] unsigned char 
   473 ;; Return value:  Size  Location     Type
   474 ;;                  1    wreg      unsigned char 
   475 ;; Registers used:
   476 ;;		wreg, fsr0l, fsr0h, fsr1l, fsr1h, fsr1l, fsr1h, fsr2l, fsr2h, status,2, status,0, pclat, btemp, btemp+1, btemp+2, bt
      +emp+3, btemp+4, btemp+5, btemp+6, btemp+7, btemp+8, btemp+9, btemp+10, btemp+11, tosl, structret, tblptrl, tblptrh, tblp
      +tru, prodl, prodh, bsr, cstack
   477 ;; Tracked objects:
   478 ;;		On entry : 0/0
   479 ;;		On exit  : 0/0
   480 ;;		Unchanged: 0/0
   481 ;; Data sizes:     COMRAM   BANK0   BANK1   BANK2   BANK3   BANK4   BANK5   BANK6   BANK7   BANK8   BANK9  BANK10  BANK1
      +1  BANK12  BANK13  BANK14  BANK15
   482 ;;      Params:         2       0       0       0       0       0       0       0       0       0       0       0       
      +0       0       0       0       0
   483 ;;      Locals:         1       0       0       0       0       0       0       0       0       0       0       0       
      +0       0       0       0       0
   484 ;;      Temps:          1       0       0       0       0       0       0       0       0       0       0       0       
      +0       0       0       0       0
   485 ;;      Totals:         4       0       0       0       0       0       0       0       0       0       0       0       
      +0       0       0       0       0
   486 ;;Total ram usage:        4 bytes
   487 ;; Hardware stack levels used:    1
   488 ;; Hardware stack levels required when called:    5
   489 ;; This function calls:
   490 ;;		_spi_fast_shift
   491 ;;		_spi_transfer_sync
   492 ;;		_wl_module_config_register
   493 ;; This function is called by:
   494 ;;		_main
   495 ;; This function uses a non-reentrant model
   496 ;;
   497                           
   498                           	psect	text3
   499  000168                     __ptext3:
   500                           	opt stack 0
   501  000168                     _wl_module_get_data:
   502                           	opt stack 25
   503                           
   504                           ;wl_module.c: 430: unsigned char status;
   505                           ;wl_module.c: 431: LATBbits.LATB4 = 0;;
   506                           
   507                           ; BSR set to: 15
   508                           ;incstack = 0
   509  000168  988A               	bcf	3978,4,c	;volatile
   510                           
   511                           ;wl_module.c: 432: status = spi_fast_shift( 0x61 );
   512  00016A  0E61               	movlw	97
   513  00016C  EC4E  F001         	call	_spi_fast_shift
   514  000170  6E1D               	movwf	wl_module_get_data@status,c
   515                           
   516                           ;wl_module.c: 433: spi_transfer_sync(data,data,16);
   517  000172  C01B  F015         	movff	wl_module_get_data@data+1,spi_transfer_sync@dataout+1
   518  000176  C01A  F014         	movff	wl_module_get_data@data,spi_transfer_sync@dataout
   519  00017A  C01B  F017         	movff	wl_module_get_data@data+1,spi_transfer_sync@datain+1
   520  00017E  C01A  F016         	movff	wl_module_get_data@data,spi_transfer_sync@datain
   521  000182  0E00               	movlw	0
   522  000184  6E19               	movwf	spi_transfer_sync@length+1,c
   523  000186  0E10               	movlw	16
   524  000188  6E18               	movwf	spi_transfer_sync@length,c
   525  00018A  ECD1  F000         	call	_spi_transfer_sync	;wreg free
   526                           
   527                           ;wl_module.c: 434: LATBbits.LATB4 = 1;;
   528  00018E  888A               	bsf	3978,4,c	;volatile
   529                           
   530                           ;wl_module.c: 435: wl_module_config_register(0x07,(1<<6));
   531  000190  6E1C               	movwf	??_wl_module_get_data& (0+255),c
   532  000192  0E40               	movlw	64
   533  000194  6E15               	movwf	wl_module_config_register@value,c
   534  000196  501C               	movf	??_wl_module_get_data& (0+255),w,c
   535  000198  0E07               	movlw	7
   536  00019A  EC29  F001         	call	_wl_module_config_register
   537                           
   538                           ;wl_module.c: 436: return status;
   539  00019E  501D               	movf	wl_module_get_data@status,w,c
   540  0001A0  0012               	return	
   541  0001A2                     __end_of_wl_module_get_data:
   542                           	opt stack 0
   543                           tblptru	equ	0xFF8
   544                           intcon	equ	0xFF2
   545                           intcon2	equ	0xFF1
   546                           intcon3	equ	0xFF0
   547                           postinc0	equ	0xFEE
   548                           wreg	equ	0xFE8
   549                           status	equ	0xFD8
   550                           
   551 ;; *************** function _spi_transfer_sync *****************
   552 ;; Defined at:
   553 ;;		line 44 in file "spi.c"
   554 ;; Parameters:    Size  Location     Type
   555 ;;  dataout         2   19[COMRAM] PTR unsigned char 
   556 ;;		 -> wl_module_get_arc_cnt@data(1), wl_module_get_plos_cnt@data(1), wl_module_get_rf_setup@data(1), wl_module_get_rf_
      +ch@data(1), 
   557 ;;		 -> wl_module_fifo_rx_empty@data(1), wl_module_fifo_tx_empty@data(1), wl_module_get_rx_pw@data(1), wl_module_power_d
      +own@config(1), 
   558 ;;		 -> wl_module_set_as_tx@config(1), main@payload(16), 
   559 ;;  datain          2   21[COMRAM] PTR unsigned char 
   560 ;;		 -> wl_module_get_arc_cnt@data(1), wl_module_get_plos_cnt@data(1), wl_module_get_rf_setup@data(1), wl_module_get_rf_
      +ch@data(1), 
   561 ;;		 -> wl_module_fifo_rx_empty@data(1), wl_module_fifo_tx_empty@data(1), wl_module_get_rx_pw@data(1), wl_module_power_d
      +own@config(1), 
   562 ;;		 -> wl_module_set_as_tx@config(1), main@payload(16), 
   563 ;;  length          2   23[COMRAM] unsigned int 
   564 ;; Auto vars:     Size  Location     Type
   565 ;;		None
   566 ;; Return value:  Size  Location     Type
   567 ;;		None               void
   568 ;; Registers used:
   569 ;;		wreg, fsr2l, fsr2h, status,2, status,0
   570 ;; Tracked objects:
   571 ;;		On entry : 0/0
   572 ;;		On exit  : 0/0
   573 ;;		Unchanged: 0/0
   574 ;; Data sizes:     COMRAM   BANK0   BANK1   BANK2   BANK3   BANK4   BANK5   BANK6   BANK7   BANK8   BANK9  BANK10  BANK1
      +1  BANK12  BANK13  BANK14  BANK15
   575 ;;      Params:         6       0       0       0       0       0       0       0       0       0       0       0       
      +0       0       0       0       0
   576 ;;      Locals:         0       0       0       0       0       0       0       0       0       0       0       0       
      +0       0       0       0       0
   577 ;;      Temps:          0       0       0       0       0       0       0       0       0       0       0       0       
      +0       0       0       0       0
   578 ;;      Totals:         6       0       0       0       0       0       0       0       0       0       0       0       
      +0       0       0       0       0
   579 ;;Total ram usage:        6 bytes
   580 ;; Hardware stack levels used:    1
   581 ;; Hardware stack levels required when called:    3
   582 ;; This function calls:
   583 ;;		Nothing
   584 ;; This function is called by:
   585 ;;		_wl_module_get_data
   586 ;;		_wl_module_read_register
   587 ;; This function uses a non-reentrant model
   588 ;;
   589                           
   590                           	psect	text4
   591  0001A2                     __ptext4:
   592                           	opt stack 0
   593  0001A2                     _spi_transfer_sync:
   594                           	opt stack 26
   595                           
   596                           ;spi.c: 45: while(length != 0){
   597                           
   598                           ;incstack = 0
   599  0001A2  D016               	goto	l929
   600  0001A4                     l919:
   601                           
   602                           ;spi.c: 46: SSP1BUF = *dataout;
   603  0001A4  C014  FFD9         	movff	spi_transfer_sync@dataout,fsr2l
   604  0001A8  C015  FFDA         	movff	spi_transfer_sync@dataout+1,fsr2h
   605  0001AC  50DF               	movf	indf2,w,c
   606  0001AE  6EC9               	movwf	4041,c	;volatile
   607  0001B0                     l83:
   608  0001B0  A69E               	btfss	3998,3,c	;volatile
   609  0001B2  D7FE               	goto	l83
   610                           
   611                           ;spi.c: 48: PIR1bits.SSP1IF = 0;
   612  0001B4  969E               	bcf	3998,3,c	;volatile
   613                           
   614                           ;spi.c: 49: *datain = SSP1BUF;
   615  0001B6  C016  FFD9         	movff	spi_transfer_sync@datain,fsr2l
   616  0001BA  C017  FFDA         	movff	spi_transfer_sync@datain+1,fsr2h
   617  0001BE  CFC9 FFDF          	movff	4041,indf2	;volatile
   618                           
   619                           ;spi.c: 50: length--;
   620  0001C2  0618               	decf	spi_transfer_sync@length,f,c
   621  0001C4  A0D8               	btfss	status,0,c
   622  0001C6  0619               	decf	spi_transfer_sync@length+1,f,c
   623                           
   624                           ;spi.c: 51: dataout++;
   625  0001C8  4A14               	infsnz	spi_transfer_sync@dataout,f,c
   626  0001CA  2A15               	incf	spi_transfer_sync@dataout+1,f,c
   627                           
   628                           ;spi.c: 52: datain++;
   629  0001CC  4A16               	infsnz	spi_transfer_sync@datain,f,c
   630  0001CE  2A17               	incf	spi_transfer_sync@datain+1,f,c
   631  0001D0                     l929:
   632  0001D0  5019               	movf	spi_transfer_sync@length+1,w,c
   633  0001D2  1018               	iorwf	spi_transfer_sync@length,w,c
   634  0001D4  B4D8               	btfsc	status,2,c
   635  0001D6  0012               	return	
   636  0001D8  D7E5               	goto	l919
   637  0001DA                     __end_of_spi_transfer_sync:
   638                           	opt stack 0
   639                           tblptru	equ	0xFF8
   640                           intcon	equ	0xFF2
   641                           intcon2	equ	0xFF1
   642                           intcon3	equ	0xFF0
   643                           postinc0	equ	0xFEE
   644                           wreg	equ	0xFE8
   645                           indf2	equ	0xFDF
   646                           fsr2h	equ	0xFDA
   647                           fsr2l	equ	0xFD9
   648                           status	equ	0xFD8
   649                           
   650 ;; *************** function _wl_module_data_ready *****************
   651 ;; Defined at:
   652 ;;		line 329 in file "wl_module.c"
   653 ;; Parameters:    Size  Location     Type
   654 ;;		None
   655 ;; Auto vars:     Size  Location     Type
   656 ;;  status          1   20[COMRAM] unsigned char 
   657 ;; Return value:  Size  Location     Type
   658 ;;                  1    wreg      unsigned char 
   659 ;; Registers used:
   660 ;;		wreg, fsr0l, fsr0h, fsr1l, fsr1h, fsr1l, fsr1h, fsr2l, fsr2h, status,2, status,0, pclat, btemp, btemp+1, btemp+2, bt
      +emp+3, btemp+4, btemp+5, btemp+6, btemp+7, btemp+8, btemp+9, btemp+10, btemp+11, tosl, structret, tblptrl, tblptrh, tblp
      +tru, prodl, prodh, bsr, cstack
   661 ;; Tracked objects:
   662 ;;		On entry : 0/0
   663 ;;		On exit  : 0/0
   664 ;;		Unchanged: 0/0
   665 ;; Data sizes:     COMRAM   BANK0   BANK1   BANK2   BANK3   BANK4   BANK5   BANK6   BANK7   BANK8   BANK9  BANK10  BANK1
      +1  BANK12  BANK13  BANK14  BANK15
   666 ;;      Params:         0       0       0       0       0       0       0       0       0       0       0       0       
      +0       0       0       0       0
   667 ;;      Locals:         1       0       0       0       0       0       0       0       0       0       0       0       
      +0       0       0       0       0
   668 ;;      Temps:          0       0       0       0       0       0       0       0       0       0       0       0       
      +0       0       0       0       0
   669 ;;      Totals:         1       0       0       0       0       0       0       0       0       0       0       0       
      +0       0       0       0       0
   670 ;;Total ram usage:        1 bytes
   671 ;; Hardware stack levels used:    1
   672 ;; Hardware stack levels required when called:    4
   673 ;; This function calls:
   674 ;;		_spi_fast_shift
   675 ;; This function is called by:
   676 ;;		_main
   677 ;; This function uses a non-reentrant model
   678 ;;
   679                           
   680                           	psect	text5
   681  00021C                     __ptext5:
   682                           	opt stack 0
   683  00021C                     _wl_module_data_ready:
   684                           	opt stack 26
   685                           
   686                           ;wl_module.c: 332: if (PTX) return 0;
   687                           
   688                           ;incstack = 0
   689  00021C  5040               	movf	_PTX,w,c	;volatile
   690  00021E  B4D8               	btfsc	status,2,c
   691  000220  D002               	goto	l197
   692  000222  0E00               	movlw	0
   693  000224  0012               	return	
   694  000226                     l197:
   695                           
   696                           ;wl_module.c: 333: unsigned char status;
   697                           ;wl_module.c: 335: LATBbits.LATB4 = 0;;
   698  000226  988A               	bcf	3978,4,c	;volatile
   699                           
   700                           ;wl_module.c: 336: status = spi_fast_shift(0xFF);
   701  000228  0EFF               	movlw	255
   702  00022A  EC4E  F001         	call	_spi_fast_shift
   703  00022E  6E15               	movwf	wl_module_data_ready@status,c
   704                           
   705                           ;wl_module.c: 337: LATBbits.LATB4 = 1;;
   706  000230  888A               	bsf	3978,4,c	;volatile
   707                           
   708                           ;wl_module.c: 338: return status & (1<<6);
   709  000232  5015               	movf	wl_module_data_ready@status,w,c
   710  000234  0B40               	andlw	64
   711  000236  0012               	return	
   712  000238                     __end_of_wl_module_data_ready:
   713                           	opt stack 0
   714                           tblptru	equ	0xFF8
   715                           intcon	equ	0xFF2
   716                           intcon2	equ	0xFF1
   717                           intcon3	equ	0xFF0
   718                           postinc0	equ	0xFEE
   719                           wreg	equ	0xFE8
   720                           indf2	equ	0xFDF
   721                           fsr2h	equ	0xFDA
   722                           fsr2l	equ	0xFD9
   723                           status	equ	0xFD8
   724                           
   725 ;; *************** function _wl_module_config *****************
   726 ;; Defined at:
   727 ;;		line 66 in file "wl_module.c"
   728 ;; Parameters:    Size  Location     Type
   729 ;;		None
   730 ;; Auto vars:     Size  Location     Type
   731 ;;		None
   732 ;; Return value:  Size  Location     Type
   733 ;;		None               void
   734 ;; Registers used:
   735 ;;		wreg, fsr0l, fsr0h, fsr1l, fsr1h, fsr1l, fsr1h, fsr2l, fsr2h, status,2, status,0, pclat, btemp, btemp+1, btemp+2, bt
      +emp+3, btemp+4, btemp+5, btemp+6, btemp+7, btemp+8, btemp+9, btemp+10, btemp+11, tosl, structret, tblptrl, tblptrh, tblp
      +tru, prodl, prodh, bsr, cstack
   736 ;; Tracked objects:
   737 ;;		On entry : 0/0
   738 ;;		On exit  : 0/0
   739 ;;		Unchanged: 0/0
   740 ;; Data sizes:     COMRAM   BANK0   BANK1   BANK2   BANK3   BANK4   BANK5   BANK6   BANK7   BANK8   BANK9  BANK10  BANK1
      +1  BANK12  BANK13  BANK14  BANK15
   741 ;;      Params:         0       0       0       0       0       0       0       0       0       0       0       0       
      +0       0       0       0       0
   742 ;;      Locals:         0       0       0       0       0       0       0       0       0       0       0       0       
      +0       0       0       0       0
   743 ;;      Temps:          1       0       0       0       0       0       0       0       0       0       0       0       
      +0       0       0       0       0
   744 ;;      Totals:         1       0       0       0       0       0       0       0       0       0       0       0       
      +0       0       0       0       0
   745 ;;Total ram usage:        1 bytes
   746 ;; Hardware stack levels used:    1
   747 ;; Hardware stack levels required when called:    5
   748 ;; This function calls:
   749 ;;		_wl_module_config_register
   750 ;; This function is called by:
   751 ;;		_main
   752 ;; This function uses a non-reentrant model
   753 ;;
   754                           
   755                           	psect	text6
   756  000128                     __ptext6:
   757                           	opt stack 0
   758  000128                     _wl_module_config:
   759                           	opt stack 25
   760                           
   761                           ;wl_module.c: 71: wl_module_config_register(0x05,2);
   762                           
   763                           ;incstack = 0
   764  000128  6E17               	movwf	??_wl_module_config& (0+255),c
   765  00012A  0E02               	movlw	2
   766  00012C  6E15               	movwf	wl_module_config_register@value,c
   767  00012E  5017               	movf	??_wl_module_config& (0+255),w,c
   768  000130  0E05               	movlw	5
   769  000132  EC29  F001         	call	_wl_module_config_register
   770                           
   771                           ;wl_module.c: 73: wl_module_config_register(0x06,(0x06 | 0x20));
   772  000136  6E17               	movwf	??_wl_module_config& (0+255),c
   773  000138  0E26               	movlw	38
   774  00013A  6E15               	movwf	wl_module_config_register@value,c
   775  00013C  5017               	movf	??_wl_module_config& (0+255),w,c
   776  00013E  0E06               	movlw	6
   777  000140  EC29  F001         	call	_wl_module_config_register
   778                           
   779                           ;wl_module.c: 75: wl_module_config_register(0x11, 16);
   780  000144  6E17               	movwf	??_wl_module_config& (0+255),c
   781  000146  0E10               	movlw	16
   782  000148  6E15               	movwf	wl_module_config_register@value,c
   783  00014A  5017               	movf	??_wl_module_config& (0+255),w,c
   784  00014C  0E11               	movlw	17
   785  00014E  EC29  F001         	call	_wl_module_config_register
   786                           
   787                           ;wl_module.c: 78: PTX = 0;
   788  000152  0E00               	movlw	0
   789  000154  6E40               	movwf	_PTX,c	;volatile
   790                           
   791                           ;wl_module.c: 79: wl_module_config_register(0x00, ( (1<<6) | (1<<3) | (1<<2) ) | ( (1<<1
      +                          ) | (1<<0) ) );
   792  000156  6E17               	movwf	??_wl_module_config& (0+255),c
   793  000158  0E4F               	movlw	79
   794  00015A  6E15               	movwf	wl_module_config_register@value,c
   795  00015C  5017               	movf	??_wl_module_config& (0+255),w,c
   796  00015E  0E00               	movlw	0
   797  000160  EC29  F001         	call	_wl_module_config_register
   798                           
   799                           ;wl_module.c: 80: LATBbits.LATB3 = 1;;
   800  000164  868A               	bsf	3978,3,c	;volatile
   801  000166  0012               	return	
   802  000168                     __end_of_wl_module_config:
   803                           	opt stack 0
   804                           tblptru	equ	0xFF8
   805                           intcon	equ	0xFF2
   806                           intcon2	equ	0xFF1
   807                           intcon3	equ	0xFF0
   808                           postinc0	equ	0xFEE
   809                           wreg	equ	0xFE8
   810                           indf2	equ	0xFDF
   811                           fsr2h	equ	0xFDA
   812                           fsr2l	equ	0xFD9
   813                           status	equ	0xFD8
   814                           
   815 ;; *************** function _wl_module_config_register *****************
   816 ;; Defined at:
   817 ;;		line 439 in file "wl_module.c"
   818 ;; Parameters:    Size  Location     Type
   819 ;;  reg             1    wreg     unsigned char 
   820 ;;  value           1   20[COMRAM] unsigned char 
   821 ;; Auto vars:     Size  Location     Type
   822 ;;  reg             1   21[COMRAM] unsigned char 
   823 ;; Return value:  Size  Location     Type
   824 ;;		None               void
   825 ;; Registers used:
   826 ;;		wreg, status,2, status,0, cstack
   827 ;; Tracked objects:
   828 ;;		On entry : 0/0
   829 ;;		On exit  : 0/0
   830 ;;		Unchanged: 0/0
   831 ;; Data sizes:     COMRAM   BANK0   BANK1   BANK2   BANK3   BANK4   BANK5   BANK6   BANK7   BANK8   BANK9  BANK10  BANK1
      +1  BANK12  BANK13  BANK14  BANK15
   832 ;;      Params:         1       0       0       0       0       0       0       0       0       0       0       0       
      +0       0       0       0       0
   833 ;;      Locals:         1       0       0       0       0       0       0       0       0       0       0       0       
      +0       0       0       0       0
   834 ;;      Temps:          0       0       0       0       0       0       0       0       0       0       0       0       
      +0       0       0       0       0
   835 ;;      Totals:         2       0       0       0       0       0       0       0       0       0       0       0       
      +0       0       0       0       0
   836 ;;Total ram usage:        2 bytes
   837 ;; Hardware stack levels used:    1
   838 ;; Hardware stack levels required when called:    4
   839 ;; This function calls:
   840 ;;		_spi_fast_shift
   841 ;; This function is called by:
   842 ;;		_wl_module_config
   843 ;;		_wl_module_get_data
   844 ;;		_wl_module_rx_config
   845 ;;		_wl_module_tx_config
   846 ;;		_wl_module_send
   847 ;; This function uses a non-reentrant model
   848 ;;
   849                           
   850                           	psect	text7
   851  000252                     __ptext7:
   852                           	opt stack 0
   853  000252                     _wl_module_config_register:
   854                           	opt stack 25
   855                           
   856                           ;incstack = 0
   857                           ;wl_module_config_register@reg stored from wreg
   858  000252  CFE8 F016          	movff	wreg,wl_module_config_register@reg
   859                           
   860                           ;wl_module.c: 442: LATBbits.LATB4 = 0;;
   861  000256  988A               	bcf	3978,4,c	;volatile
   862                           
   863                           ;wl_module.c: 443: spi_fast_shift(0x20 | (0x1F & reg));
   864  000258  5016               	movf	wl_module_config_register@reg,w,c
   865  00025A  0B1F               	andlw	31
   866  00025C  0920               	iorlw	32
   867  00025E  EC4E  F001         	call	_spi_fast_shift
   868                           
   869                           ;wl_module.c: 444: spi_fast_shift(value);
   870  000262  5015               	movf	wl_module_config_register@value,w,c
   871  000264  EC4E  F001         	call	_spi_fast_shift
   872                           
   873                           ;wl_module.c: 445: LATBbits.LATB4 = 1;;
   874  000268  888A               	bsf	3978,4,c	;volatile
   875  00026A  0012               	return	
   876  00026C                     __end_of_wl_module_config_register:
   877                           	opt stack 0
   878                           tblptru	equ	0xFF8
   879                           intcon	equ	0xFF2
   880                           intcon2	equ	0xFF1
   881                           intcon3	equ	0xFF0
   882                           postinc0	equ	0xFEE
   883                           wreg	equ	0xFE8
   884                           indf2	equ	0xFDF
   885                           fsr2h	equ	0xFDA
   886                           fsr2l	equ	0xFD9
   887                           status	equ	0xFD8
   888                           
   889 ;; *************** function _spi_fast_shift *****************
   890 ;; Defined at:
   891 ;;		line 56 in file "spi.c"
   892 ;; Parameters:    Size  Location     Type
   893 ;;  data            1    wreg     unsigned char 
   894 ;; Auto vars:     Size  Location     Type
   895 ;;  data            1   19[COMRAM] unsigned char 
   896 ;; Return value:  Size  Location     Type
   897 ;;                  1    wreg      unsigned char 
   898 ;; Registers used:
   899 ;;		wreg, status,2
   900 ;; Tracked objects:
   901 ;;		On entry : 0/0
   902 ;;		On exit  : 0/0
   903 ;;		Unchanged: 0/0
   904 ;; Data sizes:     COMRAM   BANK0   BANK1   BANK2   BANK3   BANK4   BANK5   BANK6   BANK7   BANK8   BANK9  BANK10  BANK1
      +1  BANK12  BANK13  BANK14  BANK15
   905 ;;      Params:         0       0       0       0       0       0       0       0       0       0       0       0       
      +0       0       0       0       0
   906 ;;      Locals:         1       0       0       0       0       0       0       0       0       0       0       0       
      +0       0       0       0       0
   907 ;;      Temps:          0       0       0       0       0       0       0       0       0       0       0       0       
      +0       0       0       0       0
   908 ;;      Totals:         1       0       0       0       0       0       0       0       0       0       0       0       
      +0       0       0       0       0
   909 ;;Total ram usage:        1 bytes
   910 ;; Hardware stack levels used:    1
   911 ;; Hardware stack levels required when called:    3
   912 ;; This function calls:
   913 ;;		Nothing
   914 ;; This function is called by:
   915 ;;		_wl_module_data_ready
   916 ;;		_wl_module_get_data
   917 ;;		_wl_module_config_register
   918 ;;		_wl_module_get_one_byte
   919 ;;		_wl_module_read_register
   920 ;;		_wl_module_write_register
   921 ;;		_wl_module_send
   922 ;; This function uses a non-reentrant model
   923 ;;
   924                           
   925                           	psect	text8
   926  00029C                     __ptext8:
   927                           	opt stack 0
   928  00029C                     _spi_fast_shift:
   929                           	opt stack 25
   930                           
   931                           ;incstack = 0
   932                           ;spi_fast_shift@data stored from wreg
   933  00029C  CFE8 F014          	movff	wreg,spi_fast_shift@data
   934                           
   935                           ;spi.c: 57: SSP1BUF = data;
   936  0002A0  C014  FFC9         	movff	spi_fast_shift@data,4041	;volatile
   937  0002A4                     l90:
   938  0002A4  A69E               	btfss	3998,3,c	;volatile
   939  0002A6  D7FE               	goto	l90
   940                           
   941                           ;spi.c: 59: PIR1bits.SSP1IF = 0;
   942  0002A8  969E               	bcf	3998,3,c	;volatile
   943                           
   944                           ;spi.c: 60: return SSP1BUF;
   945  0002AA  50C9               	movf	4041,w,c	;volatile
   946  0002AC  0012               	return	
   947  0002AE                     __end_of_spi_fast_shift:
   948                           	opt stack 0
   949                           tblptru	equ	0xFF8
   950                           intcon	equ	0xFF2
   951                           intcon2	equ	0xFF1
   952                           intcon3	equ	0xFF0
   953                           postinc0	equ	0xFEE
   954                           wreg	equ	0xFE8
   955                           indf2	equ	0xFDF
   956                           fsr2h	equ	0xFDA
   957                           fsr2l	equ	0xFD9
   958                           status	equ	0xFD8
   959                           
   960 ;; *************** function __delay_10ms *****************
   961 ;; Defined at:
   962 ;;		line 102 in file "main.c"
   963 ;; Parameters:    Size  Location     Type
   964 ;;  length          2   19[COMRAM] int 
   965 ;; Auto vars:     Size  Location     Type
   966 ;;		None
   967 ;; Return value:  Size  Location     Type
   968 ;;		None               void
   969 ;; Registers used:
   970 ;;		wreg, status,2, status,0
   971 ;; Tracked objects:
   972 ;;		On entry : 0/0
   973 ;;		On exit  : 0/0
   974 ;;		Unchanged: 0/0
   975 ;; Data sizes:     COMRAM   BANK0   BANK1   BANK2   BANK3   BANK4   BANK5   BANK6   BANK7   BANK8   BANK9  BANK10  BANK1
      +1  BANK12  BANK13  BANK14  BANK15
   976 ;;      Params:         2       0       0       0       0       0       0       0       0       0       0       0       
      +0       0       0       0       0
   977 ;;      Locals:         0       0       0       0       0       0       0       0       0       0       0       0       
      +0       0       0       0       0
   978 ;;      Temps:          1       0       0       0       0       0       0       0       0       0       0       0       
      +0       0       0       0       0
   979 ;;      Totals:         3       0       0       0       0       0       0       0       0       0       0       0       
      +0       0       0       0       0
   980 ;;Total ram usage:        3 bytes
   981 ;; Hardware stack levels used:    1
   982 ;; Hardware stack levels required when called:    3
   983 ;; This function calls:
   984 ;;		Nothing
   985 ;; This function is called by:
   986 ;;		_main
   987 ;; This function uses a non-reentrant model
   988 ;;
   989                           
   990                           	psect	text9
   991  0001FC                     __ptext9:
   992                           	opt stack 0
   993  0001FC                     __delay_10ms:
   994                           	opt stack 27
   995                           
   996                           ;main.c: 103: while(length){
   997                           
   998                           ;incstack = 0
   999  0001FC  D00A               	goto	l33
  1000  0001FE                     l829:
  1001                           
  1002                           ;main.c: 104: _delay((unsigned long)((10)*(16000000UL/4000.0)));
  1003  0001FE  0E34               	movlw	52
  1004  000200  6E16               	movwf	??__delay_10ms& (0+255),c
  1005  000202  0EF2               	movlw	242
  1006  000204                     u287:
  1007  000204  2EE8               	decfsz	wreg,f,c
  1008  000206  D7FE               	goto	u287
  1009  000208  2E16               	decfsz	??__delay_10ms& (0+255),f,c
  1010  00020A  D7FC               	goto	u287
  1011                           
  1012                           ;main.c: 105: length--;
  1013  00020C  0614               	decf	__delay_10ms@length,f,c
  1014  00020E  A0D8               	btfss	status,0,c
  1015  000210  0615               	decf	__delay_10ms@length+1,f,c
  1016  000212                     l33:
  1017  000212  5015               	movf	__delay_10ms@length+1,w,c
  1018  000214  1014               	iorwf	__delay_10ms@length,w,c
  1019  000216  B4D8               	btfsc	status,2,c
  1020  000218  0012               	return	
  1021  00021A  D7F1               	goto	l829
  1022  00021C                     __end_of__delay_10ms:
  1023                           	opt stack 0
  1024                           tblptru	equ	0xFF8
  1025                           intcon	equ	0xFF2
  1026                           intcon2	equ	0xFF1
  1027                           intcon3	equ	0xFF0
  1028                           postinc0	equ	0xFEE
  1029                           wreg	equ	0xFE8
  1030                           indf2	equ	0xFDF
  1031                           fsr2h	equ	0xFDA
  1032                           fsr2l	equ	0xFD9
  1033                           status	equ	0xFD8
  1034                           
  1035 ;; *************** function _ISR *****************
  1036 ;; Defined at:
  1037 ;;		line 139 in file "main.c"
  1038 ;; Parameters:    Size  Location     Type
  1039 ;;		None
  1040 ;; Auto vars:     Size  Location     Type
  1041 ;;  status          1   18[COMRAM] unsigned char 
  1042 ;; Return value:  Size  Location     Type
  1043 ;;		None               void
  1044 ;; Registers used:
  1045 ;;		wreg, status,2, status,0, cstack
  1046 ;; Tracked objects:
  1047 ;;		On entry : 0/0
  1048 ;;		On exit  : 0/0
  1049 ;;		Unchanged: 0/0
  1050 ;; Data sizes:     COMRAM   BANK0   BANK1   BANK2   BANK3   BANK4   BANK5   BANK6   BANK7   BANK8   BANK9  BANK10  BANK1
      +1  BANK12  BANK13  BANK14  BANK15
  1051 ;;      Params:         0       0       0       0       0       0       0       0       0       0       0       0       
      +0       0       0       0       0
  1052 ;;      Locals:         1       0       0       0       0       0       0       0       0       0       0       0       
      +0       0       0       0       0
  1053 ;;      Temps:         15       0       0       0       0       0       0       0       0       0       0       0       
      +0       0       0       0       0
  1054 ;;      Totals:        16       0       0       0       0       0       0       0       0       0       0       0       
      +0       0       0       0       0
  1055 ;;Total ram usage:       16 bytes
  1056 ;; Hardware stack levels used:    1
  1057 ;; Hardware stack levels required when called:    2
  1058 ;; This function calls:
  1059 ;;		i2_spi_fast_shift
  1060 ;;		i2_wl_module_config_register
  1061 ;; This function is called by:
  1062 ;;		Interrupt level 2
  1063 ;; This function uses a non-reentrant model
  1064 ;;
  1065                           
  1066                           	psect	intcode
  1067  000008                     __pintcode:
  1068                           	opt stack 0
  1069  000008                     _ISR:
  1070                           	opt stack 25
  1071                           
  1072                           ;incstack = 0
  1073  000008  CFFA F005          	movff	pclath,??_ISR+1
  1074  00000C  CFFB F006          	movff	pclatu,??_ISR+2
  1075  000010  CFE9 F007          	movff	fsr0l,??_ISR+3
  1076  000014  CFEA F008          	movff	fsr0h,??_ISR+4
  1077  000018  CFE1 F009          	movff	fsr1l,??_ISR+5
  1078  00001C  CFE2 F00A          	movff	fsr1h,??_ISR+6
  1079  000020  CFD9 F00B          	movff	fsr2l,??_ISR+7
  1080  000024  CFDA F00C          	movff	fsr2h,??_ISR+8
  1081  000028  CFF3 F00D          	movff	prodl,??_ISR+9
  1082  00002C  CFF4 F00E          	movff	prodh,??_ISR+10
  1083  000030  CFF6 F00F          	movff	tblptrl,??_ISR+11
  1084  000034  CFF7 F010          	movff	tblptrh,??_ISR+12
  1085  000038  CFF8 F011          	movff	tblptru,??_ISR+13
  1086  00003C  CFF5 F012          	movff	tablat,??_ISR+14
  1087                           
  1088                           ;main.c: 141: if( INTCON3bits.INT2IF ){
  1089  000040  A2F0               	btfss	intcon3,1,c	;volatile
  1090  000042  D028               	goto	i2l52
  1091                           
  1092                           ;main.c: 142: unsigned char status;
  1093                           ;main.c: 145: LATBbits.LATB4 = 0;;
  1094  000044  988A               	bcf	3978,4,c	;volatile
  1095                           
  1096                           ;main.c: 146: status = spi_fast_shift(0xFF);
  1097  000046  0EFF               	movlw	255
  1098  000048  EC57  F001         	call	i2_spi_fast_shift
  1099  00004C  6E13               	movwf	ISR@status,c
  1100                           
  1101                           ;main.c: 147: LATBbits.LATB4 = 1;;
  1102  00004E  888A               	bsf	3978,4,c	;volatile
  1103                           
  1104                           ;main.c: 150: if (status & (1<<5)){
  1105  000050  AA13               	btfss	ISR@status,5,c
  1106  000052  D009               	goto	i2l1239
  1107                           
  1108                           ;main.c: 151: wl_module_config_register(0x07, (1<<5));
  1109  000054  6E04               	movwf	??_ISR& (0+255),c
  1110  000056  0E20               	movlw	32
  1111  000058  6E02               	movwf	i2wl_module_config_register@value,c
  1112  00005A  5004               	movf	??_ISR& (0+255),w,c
  1113  00005C  0E07               	movlw	7
  1114  00005E  EC36  F001         	call	i2_wl_module_config_register
  1115                           
  1116                           ;main.c: 152: PTX=0;
  1117  000062  0E00               	movlw	0
  1118  000064  6E40               	movwf	_PTX,c	;volatile
  1119  000066                     i2l1239:
  1120                           
  1121                           ;main.c: 153: }
  1122                           ;main.c: 155: if (status & (1<<4)){
  1123  000066  A813               	btfss	ISR@status,4,c
  1124  000068  D00D               	goto	i2l1249
  1125                           
  1126                           ;main.c: 156: wl_module_config_register(0x07, (1<<4));
  1127  00006A  6E04               	movwf	??_ISR& (0+255),c
  1128  00006C  0E10               	movlw	16
  1129  00006E  6E02               	movwf	i2wl_module_config_register@value,c
  1130  000070  5004               	movf	??_ISR& (0+255),w,c
  1131  000072  0E07               	movlw	7
  1132  000074  EC36  F001         	call	i2_wl_module_config_register
  1133                           
  1134                           ;main.c: 157: LATBbits.LATB3 = 1;;
  1135  000078  868A               	bsf	3978,3,c	;volatile
  1136                           
  1137                           ;main.c: 158: _delay((unsigned long)((10)*(16000000UL/4000000.0)));
  1138  00007A  0E0D               	movlw	13
  1139  00007C                     i2u29_47:
  1140  00007C  2EE8               	decfsz	wreg,f,c
  1141  00007E  D7FE               	goto	i2u29_47
  1142  000080  F000               	nop	
  1143                           
  1144                           ;main.c: 159: LATBbits.LATB3 = 0;;
  1145  000082  968A               	bcf	3978,3,c	;volatile
  1146  000084                     i2l1249:
  1147                           
  1148                           ;main.c: 160: }
  1149                           ;main.c: 162: if (status & (1<<0)){
  1150  000084  A013               	btfss	ISR@status,0,c
  1151  000086  D005               	goto	i2l1257
  1152                           
  1153                           ;main.c: 163: LATBbits.LATB4 = 0;;
  1154  000088  988A               	bcf	3978,4,c	;volatile
  1155                           
  1156                           ;main.c: 164: spi_fast_shift(0xE1);
  1157  00008A  0EE1               	movlw	225
  1158  00008C  EC57  F001         	call	i2_spi_fast_shift
  1159                           
  1160                           ;main.c: 165: LATBbits.LATB4 = 1;;
  1161  000090  888A               	bsf	3978,4,c	;volatile
  1162  000092                     i2l1257:
  1163                           
  1164                           ;main.c: 166: }
  1165                           ;main.c: 168: INTCON3bits.INT2IF = 0;
  1166  000092  92F0               	bcf	intcon3,1,c	;volatile
  1167  000094                     i2l52:
  1168  000094  C012  FFF5         	movff	??_ISR+14,tablat
  1169  000098  C011  FFF8         	movff	??_ISR+13,tblptru
  1170  00009C  C010  FFF7         	movff	??_ISR+12,tblptrh
  1171  0000A0  C00F  FFF6         	movff	??_ISR+11,tblptrl
  1172  0000A4  C00E  FFF4         	movff	??_ISR+10,prodh
  1173  0000A8  C00D  FFF3         	movff	??_ISR+9,prodl
  1174  0000AC  C00C  FFDA         	movff	??_ISR+8,fsr2h
  1175  0000B0  C00B  FFD9         	movff	??_ISR+7,fsr2l
  1176  0000B4  C00A  FFE2         	movff	??_ISR+6,fsr1h
  1177  0000B8  C009  FFE1         	movff	??_ISR+5,fsr1l
  1178  0000BC  C008  FFEA         	movff	??_ISR+4,fsr0h
  1179  0000C0  C007  FFE9         	movff	??_ISR+3,fsr0l
  1180  0000C4  C006  FFFB         	movff	??_ISR+2,pclatu
  1181  0000C8  C005  FFFA         	movff	??_ISR+1,pclath
  1182  0000CC  0011               	retfie		f
  1183  0000CE                     __end_of_ISR:
  1184                           	opt stack 0
  1185                           pclatu	equ	0xFFB
  1186                           pclath	equ	0xFFA
  1187                           tblptru	equ	0xFF8
  1188                           tblptrh	equ	0xFF7
  1189                           tblptrl	equ	0xFF6
  1190                           tablat	equ	0xFF5
  1191                           prodh	equ	0xFF4
  1192                           prodl	equ	0xFF3
  1193                           intcon	equ	0xFF2
  1194                           intcon2	equ	0xFF1
  1195                           intcon3	equ	0xFF0
  1196                           postinc0	equ	0xFEE
  1197                           fsr0h	equ	0xFEA
  1198                           fsr0l	equ	0xFE9
  1199                           wreg	equ	0xFE8
  1200                           fsr1h	equ	0xFE2
  1201                           fsr1l	equ	0xFE1
  1202                           indf2	equ	0xFDF
  1203                           fsr2h	equ	0xFDA
  1204                           fsr2l	equ	0xFD9
  1205                           status	equ	0xFD8
  1206                           
  1207 ;; *************** function i2_wl_module_config_register *****************
  1208 ;; Defined at:
  1209 ;;		line 439 in file "wl_module.c"
  1210 ;; Parameters:    Size  Location     Type
  1211 ;;  reg             1    wreg     unsigned char 
  1212 ;;  value           1    1[COMRAM] unsigned char 
  1213 ;; Auto vars:     Size  Location     Type
  1214 ;;  reg             1    2[COMRAM] unsigned char 
  1215 ;; Return value:  Size  Location     Type
  1216 ;;		None               void
  1217 ;; Registers used:
  1218 ;;		wreg, status,2, status,0, cstack
  1219 ;; Tracked objects:
  1220 ;;		On entry : 0/0
  1221 ;;		On exit  : 0/0
  1222 ;;		Unchanged: 0/0
  1223 ;; Data sizes:     COMRAM   BANK0   BANK1   BANK2   BANK3   BANK4   BANK5   BANK6   BANK7   BANK8   BANK9  BANK10  BANK1
      +1  BANK12  BANK13  BANK14  BANK15
  1224 ;;      Params:         1       0       0       0       0       0       0       0       0       0       0       0       
      +0       0       0       0       0
  1225 ;;      Locals:         1       0       0       0       0       0       0       0       0       0       0       0       
      +0       0       0       0       0
  1226 ;;      Temps:          0       0       0       0       0       0       0       0       0       0       0       0       
      +0       0       0       0       0
  1227 ;;      Totals:         2       0       0       0       0       0       0       0       0       0       0       0       
      +0       0       0       0       0
  1228 ;;Total ram usage:        2 bytes
  1229 ;; Hardware stack levels used:    1
  1230 ;; Hardware stack levels required when called:    1
  1231 ;; This function calls:
  1232 ;;		i2_spi_fast_shift
  1233 ;; This function is called by:
  1234 ;;		_ISR
  1235 ;; This function uses a non-reentrant model
  1236 ;;
  1237                           
  1238                           	psect	text11
  1239  00026C                     __ptext11:
  1240                           	opt stack 0
  1241  00026C                     i2_wl_module_config_register:
  1242                           	opt stack 25
  1243                           
  1244                           ;incstack = 0
  1245                           ;i2wl_module_config_register@reg stored from wreg
  1246  00026C  CFE8 F003          	movff	wreg,i2wl_module_config_register@reg
  1247                           
  1248                           ;wl_module.c: 442: LATBbits.LATB4 = 0;;
  1249  000270  988A               	bcf	3978,4,c	;volatile
  1250                           
  1251                           ;wl_module.c: 443: spi_fast_shift(0x20 | (0x1F & reg));
  1252  000272  5003               	movf	i2wl_module_config_register@reg,w,c
  1253  000274  0B1F               	andlw	31
  1254  000276  0920               	iorlw	32
  1255  000278  EC57  F001         	call	i2_spi_fast_shift
  1256                           
  1257                           ;wl_module.c: 444: spi_fast_shift(value);
  1258  00027C  5002               	movf	i2wl_module_config_register@value,w,c
  1259  00027E  EC57  F001         	call	i2_spi_fast_shift
  1260                           
  1261                           ;wl_module.c: 445: LATBbits.LATB4 = 1;;
  1262  000282  888A               	bsf	3978,4,c	;volatile
  1263  000284  0012               	return	
  1264  000286                     __end_ofi2_wl_module_config_register:
  1265                           	opt stack 0
  1266                           pclatu	equ	0xFFB
  1267                           pclath	equ	0xFFA
  1268                           tblptru	equ	0xFF8
  1269                           tblptrh	equ	0xFF7
  1270                           tblptrl	equ	0xFF6
  1271                           tablat	equ	0xFF5
  1272                           prodh	equ	0xFF4
  1273                           prodl	equ	0xFF3
  1274                           intcon	equ	0xFF2
  1275                           intcon2	equ	0xFF1
  1276                           intcon3	equ	0xFF0
  1277                           postinc0	equ	0xFEE
  1278                           fsr0h	equ	0xFEA
  1279                           fsr0l	equ	0xFE9
  1280                           wreg	equ	0xFE8
  1281                           fsr1h	equ	0xFE2
  1282                           fsr1l	equ	0xFE1
  1283                           indf2	equ	0xFDF
  1284                           fsr2h	equ	0xFDA
  1285                           fsr2l	equ	0xFD9
  1286                           status	equ	0xFD8
  1287                           
  1288 ;; *************** function i2_spi_fast_shift *****************
  1289 ;; Defined at:
  1290 ;;		line 56 in file "spi.c"
  1291 ;; Parameters:    Size  Location     Type
  1292 ;;  data            1    wreg     unsigned char 
  1293 ;; Auto vars:     Size  Location     Type
  1294 ;;  data            1    0[COMRAM] unsigned char 
  1295 ;; Return value:  Size  Location     Type
  1296 ;;                  1    wreg      unsigned char 
  1297 ;; Registers used:
  1298 ;;		wreg, status,2
  1299 ;; Tracked objects:
  1300 ;;		On entry : 0/0
  1301 ;;		On exit  : 0/0
  1302 ;;		Unchanged: 0/0
  1303 ;; Data sizes:     COMRAM   BANK0   BANK1   BANK2   BANK3   BANK4   BANK5   BANK6   BANK7   BANK8   BANK9  BANK10  BANK1
      +1  BANK12  BANK13  BANK14  BANK15
  1304 ;;      Params:         0       0       0       0       0       0       0       0       0       0       0       0       
      +0       0       0       0       0
  1305 ;;      Locals:         1       0       0       0       0       0       0       0       0       0       0       0       
      +0       0       0       0       0
  1306 ;;      Temps:          0       0       0       0       0       0       0       0       0       0       0       0       
      +0       0       0       0       0
  1307 ;;      Totals:         1       0       0       0       0       0       0       0       0       0       0       0       
      +0       0       0       0       0
  1308 ;;Total ram usage:        1 bytes
  1309 ;; Hardware stack levels used:    1
  1310 ;; This function calls:
  1311 ;;		Nothing
  1312 ;; This function is called by:
  1313 ;;		_ISR
  1314 ;;		i2_wl_module_config_register
  1315 ;; This function uses a non-reentrant model
  1316 ;;
  1317                           
  1318                           	psect	text12
  1319  0002AE                     __ptext12:
  1320                           	opt stack 0
  1321  0002AE                     i2_spi_fast_shift:
  1322                           	opt stack 25
  1323                           
  1324                           ;incstack = 0
  1325                           ;i2spi_fast_shift@data stored from wreg
  1326  0002AE  CFE8 F001          	movff	wreg,i2spi_fast_shift@data
  1327                           
  1328                           ;spi.c: 57: SSP1BUF = data;
  1329  0002B2  C001  FFC9         	movff	i2spi_fast_shift@data,4041	;volatile
  1330  0002B6                     i2l90:
  1331  0002B6  A69E               	btfss	3998,3,c	;volatile
  1332  0002B8  D7FE               	goto	i2l90
  1333                           
  1334                           ;spi.c: 59: PIR1bits.SSP1IF = 0;
  1335  0002BA  969E               	bcf	3998,3,c	;volatile
  1336                           
  1337                           ;spi.c: 60: return SSP1BUF;
  1338  0002BC  50C9               	movf	4041,w,c	;volatile
  1339  0002BE  0012               	return	
  1340  0002C0                     __end_ofi2_spi_fast_shift:
  1341                           	opt stack 0
  1342  0000                     pclatu	equ	0xFFB
  1343                           pclath	equ	0xFFA
  1344                           tblptru	equ	0xFF8
  1345                           tblptrh	equ	0xFF7
  1346                           tblptrl	equ	0xFF6
  1347                           tablat	equ	0xFF5
  1348                           prodh	equ	0xFF4
  1349                           prodl	equ	0xFF3
  1350                           intcon	equ	0xFF2
  1351                           intcon2	equ	0xFF1
  1352                           intcon3	equ	0xFF0
  1353                           postinc0	equ	0xFEE
  1354                           fsr0h	equ	0xFEA
  1355                           fsr0l	equ	0xFE9
  1356                           wreg	equ	0xFE8
  1357                           fsr1h	equ	0xFE2
  1358                           fsr1l	equ	0xFE1
  1359                           indf2	equ	0xFDF
  1360                           fsr2h	equ	0xFDA
  1361                           fsr2l	equ	0xFD9
  1362                           status	equ	0xFD8
  1363                           pclatu	equ	0xFFB
  1364                           pclath	equ	0xFFA
  1365                           tblptru	equ	0xFF8
  1366                           tblptrh	equ	0xFF7
  1367                           tblptrl	equ	0xFF6
  1368                           tablat	equ	0xFF5
  1369                           prodh	equ	0xFF4
  1370                           prodl	equ	0xFF3
  1371                           intcon	equ	0xFF2
  1372                           intcon2	equ	0xFF1
  1373                           intcon3	equ	0xFF0
  1374                           postinc0	equ	0xFEE
  1375                           fsr0h	equ	0xFEA
  1376                           fsr0l	equ	0xFE9
  1377                           wreg	equ	0xFE8
  1378                           fsr1h	equ	0xFE2
  1379                           fsr1l	equ	0xFE1
  1380                           indf2	equ	0xFDF
  1381                           fsr2h	equ	0xFDA
  1382                           fsr2l	equ	0xFD9
  1383                           status	equ	0xFD8
  1384                           
  1385                           	psect	rparam
  1386  0000                     pclatu	equ	0xFFB
  1387                           pclath	equ	0xFFA
  1388                           tblptru	equ	0xFF8
  1389                           tblptrh	equ	0xFF7
  1390                           tblptrl	equ	0xFF6
  1391                           tablat	equ	0xFF5
  1392                           prodh	equ	0xFF4
  1393                           prodl	equ	0xFF3
  1394                           intcon	equ	0xFF2
  1395                           intcon2	equ	0xFF1
  1396                           intcon3	equ	0xFF0
  1397                           postinc0	equ	0xFEE
  1398                           fsr0h	equ	0xFEA
  1399                           fsr0l	equ	0xFE9
  1400                           wreg	equ	0xFE8
  1401                           fsr1h	equ	0xFE2
  1402                           fsr1l	equ	0xFE1
  1403                           indf2	equ	0xFDF
  1404                           fsr2h	equ	0xFDA
  1405                           fsr2l	equ	0xFD9
  1406                           status	equ	0xFD8


Data Sizes:
    Strings     0
    Constant    0
    Data        0
    BSS         16
    Persistent  0
    Stack       0

Auto Spaces:
    Space          Size  Autos    Used
    COMRAM           95     48      64
    BANK0           160      0       0
    BANK1           256      0       0
    BANK2           256      0       0
    BANK3           256      0       0
    BANK4           256      0       0
    BANK5           256      0       0
    BANK6           256      0       0
    BANK7           256      0       0
    BANK8           256      0       0
    BANK9           256      0       0
    BANK10          256      0       0
    BANK11          256      0       0
    BANK12          256      0       0
    BANK13          256      0       0
    BANK14          256      0       0
    BANK15           56      0       0

Pointer List with Targets:

    wl_module_get_data@data	PTR unsigned char  size(2) Largest target is 16
		 -> main@payload(COMRAM[16]), 

    spi_transfer_sync@datain	PTR unsigned char  size(2) Largest target is 16
		 -> wl_module_get_arc_cnt@data(COMRAM[1]), wl_module_get_plos_cnt@data(COMRAM[1]), wl_module_get_rf_setup@data(COMRAM[1]), wl_module_get_rf_ch@data(COMRAM[1]), 
		 -> wl_module_fifo_rx_empty@data(COMRAM[1]), wl_module_fifo_tx_empty@data(COMRAM[1]), wl_module_get_rx_pw@data(COMRAM[1]), wl_module_power_down@config(COMRAM[1]), 
		 -> wl_module_set_as_tx@config(COMRAM[1]), main@payload(COMRAM[16]), 

    spi_transfer_sync@dataout	PTR unsigned char  size(2) Largest target is 16
		 -> wl_module_get_arc_cnt@data(COMRAM[1]), wl_module_get_plos_cnt@data(COMRAM[1]), wl_module_get_rf_setup@data(COMRAM[1]), wl_module_get_rf_ch@data(COMRAM[1]), 
		 -> wl_module_fifo_rx_empty@data(COMRAM[1]), wl_module_fifo_tx_empty@data(COMRAM[1]), wl_module_get_rx_pw@data(COMRAM[1]), wl_module_power_down@config(COMRAM[1]), 
		 -> wl_module_set_as_tx@config(COMRAM[1]), main@payload(COMRAM[16]), 


Critical Paths under _main in COMRAM

    _main->_wl_module_get_data
    _wl_module_get_data->_spi_transfer_sync
    _wl_module_data_ready->_spi_fast_shift
    _wl_module_config->_wl_module_config_register
    _wl_module_config_register->_spi_fast_shift

Critical Paths under _ISR in COMRAM

    _ISR->i2_wl_module_config_register
    i2_wl_module_config_register->i2_spi_fast_shift

Critical Paths under _main in BANK0

    None.

Critical Paths under _ISR in BANK0

    None.

Critical Paths under _main in BANK1

    None.

Critical Paths under _ISR in BANK1

    None.

Critical Paths under _main in BANK2

    None.

Critical Paths under _ISR in BANK2

    None.

Critical Paths under _main in BANK3

    None.

Critical Paths under _ISR in BANK3

    None.

Critical Paths under _main in BANK4

    None.

Critical Paths under _ISR in BANK4

    None.

Critical Paths under _main in BANK5

    None.

Critical Paths under _ISR in BANK5

    None.

Critical Paths under _main in BANK6

    None.

Critical Paths under _ISR in BANK6

    None.

Critical Paths under _main in BANK7

    None.

Critical Paths under _ISR in BANK7

    None.

Critical Paths under _main in BANK8

    None.

Critical Paths under _ISR in BANK8

    None.

Critical Paths under _main in BANK9

    None.

Critical Paths under _ISR in BANK9

    None.

Critical Paths under _main in BANK10

    None.

Critical Paths under _ISR in BANK10

    None.

Critical Paths under _main in BANK11

    None.

Critical Paths under _ISR in BANK11

    None.

Critical Paths under _main in BANK12

    None.

Critical Paths under _ISR in BANK12

    None.

Critical Paths under _main in BANK13

    None.

Critical Paths under _ISR in BANK13

    None.

Critical Paths under _main in BANK14

    None.

Critical Paths under _ISR in BANK14

    None.

Critical Paths under _main in BANK15

    None.

Critical Paths under _ISR in BANK15

    None.

Call Graph Tables:

 ---------------------------------------------------------------------------------
 (Depth) Function   	        Calls       Base Space   Used Autos Params    Refs
 ---------------------------------------------------------------------------------
 (0) _main                                                19    19      0    2531
                                             29 COMRAM    19    19      0
                        __delay_10ms
                   _wl_module_config
               _wl_module_data_ready
                 _wl_module_get_data
                     _wl_module_init
 ---------------------------------------------------------------------------------
 (1) _wl_module_init                                       0     0      0       0
                           _spi_init
 ---------------------------------------------------------------------------------
 (2) _spi_init                                             0     0      0       0
 ---------------------------------------------------------------------------------
 (1) _wl_module_get_data                                   4     2      2    1402
                                             25 COMRAM     4     2      2
                     _spi_fast_shift
                  _spi_transfer_sync
          _wl_module_config_register
 ---------------------------------------------------------------------------------
 (2) _spi_transfer_sync                                    6     0      6     303
                                             19 COMRAM     6     0      6
 ---------------------------------------------------------------------------------
 (1) _wl_module_data_ready                                 1     1      0      30
                                             20 COMRAM     1     1      0
                     _spi_fast_shift
 ---------------------------------------------------------------------------------
 (1) _wl_module_config                                     1     1      0     996
                                             22 COMRAM     1     1      0
          _wl_module_config_register
 ---------------------------------------------------------------------------------
 (2) _wl_module_config_register                            2     1      1     996
                                             20 COMRAM     2     1      1
                     _spi_fast_shift
 ---------------------------------------------------------------------------------
 (3) _spi_fast_shift                                       1     1      0      15
                                             19 COMRAM     1     1      0
 ---------------------------------------------------------------------------------
 (1) __delay_10ms                                          3     1      2      58
                                             19 COMRAM     3     1      2
 ---------------------------------------------------------------------------------
 Estimated maximum stack depth 3
 ---------------------------------------------------------------------------------
 (Depth) Function   	        Calls       Base Space   Used Autos Params    Refs
 ---------------------------------------------------------------------------------
 (4) _ISR                                                 16    16      0     449
                                              3 COMRAM    16    16      0
                   i2_spi_fast_shift
        i2_wl_module_config_register
 ---------------------------------------------------------------------------------
 (5) i2_wl_module_config_register                          2     1      1     309
                                              1 COMRAM     2     1      1
                   i2_spi_fast_shift
 ---------------------------------------------------------------------------------
 (6) i2_spi_fast_shift                                     1     1      0      73
                                              0 COMRAM     1     1      0
 ---------------------------------------------------------------------------------
 Estimated maximum stack depth 6
 ---------------------------------------------------------------------------------

 Call Graph Graphs:

 _main (ROOT)
   __delay_10ms
   _wl_module_config
     _wl_module_config_register
       _spi_fast_shift
   _wl_module_data_ready
     _spi_fast_shift
   _wl_module_get_data
     _spi_fast_shift
     _spi_transfer_sync
     _wl_module_config_register
       _spi_fast_shift
   _wl_module_init
     _spi_init

 _ISR (ROOT)
   i2_spi_fast_shift
   i2_wl_module_config_register
     i2_spi_fast_shift

 Address spaces:
Name               Size   Autos  Total    Cost      Usage
BIGRAM             F37      0       0      37        0.0%
EEDATA             400      0       0       0        0.0%
BITBANK14          100      0       0      33        0.0%
BANK14             100      0       0      34        0.0%
BITBANK13          100      0       0      31        0.0%
BANK13             100      0       0      32        0.0%
BITBANK12          100      0       0      29        0.0%
BANK12             100      0       0      30        0.0%
BITBANK11          100      0       0      27        0.0%
BANK11             100      0       0      28        0.0%
BITBANK10          100      0       0      25        0.0%
BANK10             100      0       0      26        0.0%
BITBANK9           100      0       0      23        0.0%
BANK9              100      0       0      24        0.0%
BITBANK8           100      0       0      21        0.0%
BANK8              100      0       0      22        0.0%
BITBANK7           100      0       0      19        0.0%
BANK7              100      0       0      20        0.0%
BITBANK6           100      0       0      17        0.0%
BANK6              100      0       0      18        0.0%
BITBANK5           100      0       0      15        0.0%
BANK5              100      0       0      16        0.0%
BITBANK4           100      0       0      13        0.0%
BANK4              100      0       0      14        0.0%
BITBANK3           100      0       0      10        0.0%
BANK3              100      0       0      11        0.0%
BITBANK2           100      0       0       8        0.0%
BANK2              100      0       0       9        0.0%
BITBANK1           100      0       0       6        0.0%
BANK1              100      0       0       7        0.0%
BITBANK0            A0      0       0       4        0.0%
BANK0               A0      0       0       5        0.0%
BITCOMRAM           5F      0       0       0        0.0%
COMRAM              5F     30      40       1       67.4%
BITBANK15           38      0       0      35        0.0%
BANK15              38      0       0      36        0.0%
BITSFR_1             0      0       0      40        0.0%
SFR_1                0      0       0      40        0.0%
BITSFR               0      0       0      40        0.0%
SFR                  0      0       0      40        0.0%
STACK                0      0       0       2        0.0%
NULL                 0      0       0       0        0.0%
ABS                  0      0      40      12        0.0%
DATA                 0      0      40       3        0.0%
CODE                 0      0       0       0        0.0%


Microchip Technology PIC18 Macro Assembler V1.30 build 55553 
Symbol Table                                                                                   Thu Apr 06 23:30:06 2017

                __size_of__delay_10ms 0020                                    l33 0212  
                                  l90 02A4                                    l83 01B0  
                        __CFG_CP0$OFF 000000                          __CFG_CP1$OFF 000000  
                        __CFG_CP2$OFF 000000                          __CFG_CP3$OFF 000000  
                         __CFG_LVP$ON 000000                                   l197 0226  
                                 l851 0100                                   l829 01FE  
                                 l919 01A4                                   l929 01D0  
                        __CFG_CPB$OFF 000000                          __CFG_CPD$OFF 000000  
                                 _ISR 0008                                   u287 0204  
                                 _PTX 0040                                   wreg 000FE8  
                                ?_ISR 0001                                  _LATD 000F8C  
                                i2l52 0094                                  i2l90 02B6  
                       __CFG_FCMEN$ON 000000                        _wl_module_init 0238  
                         main@payload 001F                                  _main 00D2  
                                fsr0h 000FEA                                  fsr1h 000FE2  
                                fsr0l 000FE9                                  fsr2h 000FDA  
                                fsr1l 000FE1                                  indf2 000FDF  
                                fsr2l 000FD9                         __CFG_BORV$190 000000  
                                pclat 000FFA                           main@zaehler 0030  
                                prodh 000FF4                                  prodl 000FF3  
                                start 00CE                         __CFG_IESO$OFF 000000  
                               ??_ISR 0004          ?i2_wl_module_config_register 0002  
           _wl_module_config_register 0252                                 ?_main 0001  
                               _TRISD 000F95                         __CFG_WRT0$OFF 000000  
                       __CFG_WRT1$OFF 000000                         __CFG_WRT2$OFF 000000  
                       __CFG_WRT3$OFF 000000                        __CFG_EBTR0$OFF 000000  
                      __CFG_EBTR1$OFF 000000                        __CFG_EBTR2$OFF 000000  
                      __CFG_EBTR3$OFF 000000                         __CFG_WRTB$OFF 000000  
                       __CFG_WRTC$OFF 000000                         __CFG_WRTD$OFF 000000  
                      __CFG_EBTRB$OFF 000000                    __CFG_MCLRE$EXTMCLR 000000  
              __end_of_wl_module_init 0252                                 tablat 000FF5  
                               status 000FD8                        __CFG_HFOFST$ON 000000  
                _wl_module_data_ready 021C                        __CFG_PBADEN$ON 000000  
                     __initialization 0286                          __end_of_main 0128  
                   ?i2_spi_fast_shift 0001                    ??i2_spi_fast_shift 0001  
       ??i2_wl_module_config_register 0003                                ??_main 001E  
                       __activetblptr 000002                    spi_fast_shift@data 0014  
         __size_of_wl_module_get_data 003A                      ??_spi_fast_shift 0014  
            spi_transfer_sync@dataout 0014                       ?_wl_module_init 0001  
                              i2l1239 0066                                i2l1257 0092  
                              i2l1249 0084                        __CFG_WDTEN$OFF 000000  
               ?_wl_module_data_ready 0001                        __CFG_PWRTEN$ON 000000  
                      __CFG_XINST$OFF 000000                      _wl_module_config 0128  
                      __CFG_STVREN$ON 000000                                clear_0 028C  
                      main@nRF_status 002F                                tblptrh 000FF7  
                              tblptrl 000FF6                                tblptru 000FF8  
                    __end_of_spi_init 01FC                            __accesstop 0060  
             __end_of__initialization 0292                        __pcstackCOMRAM 0001  
  __size_of_wl_module_config_register 001A                       __CFG_PLLCFG$OFF 000000  
          wl_module_data_ready@status 0015                ??_wl_module_data_ready 0015  
                           ISR@status 0013                         ??__delay_10ms 0016  
                  __CFG_CCP2MX$PORTC1 000000                    __CFG_CCP3MX$PORTB5 000000  
                   __CFG_PRICLKEN$OFF 000000                               i2u29_47 007C  
                             _SSP1BUF 000FC9     __end_of_wl_module_config_register 026C  
                             __Hparam 0000              wl_module_get_data@status 001D  
                             __Lparam 0000                             ?_spi_init 0001  
                             __pcinit 0286                               __ramtop 1000  
                 __end_of__delay_10ms 021C                               __ptext0 00D2  
                             __ptext1 0238                               __ptext2 01DA  
                             __ptext3 0168                               __ptext4 01A2  
                             __ptext5 021C                               __ptext6 0128  
                             __ptext7 0252                               __ptext8 029C  
                             __ptext9 01FC                          __size_of_ISR 00C6  
                    ??_wl_module_init 0014              __end_of_wl_module_config 0168  
           __size_ofi2_spi_fast_shift 0012                  end_of_initialization 0292  
                       __Lmediumconst 0000                            ??_spi_init 0014  
                             postinc0 000FEE                    __delay_10ms@length 0014  
        wl_module_config_register@reg 0016            __end_of_wl_module_get_data 01A2  
                           _TRISAbits 000F92                             _TRISBbits 000F93  
                           _TRISCbits 000F94                           __delay_10ms 01FC  
 __end_ofi2_wl_module_config_register 0286           i2_wl_module_config_register 026C  
                 start_initialization 0286                           __end_of_ISR 00CE  
                i2spi_fast_shift@data 0001               spi_transfer_sync@datain 0016  
             spi_transfer_sync@length 0018                wl_module_get_data@data 001A  
             __size_of_spi_fast_shift 0012                     _spi_transfer_sync 01A2  
                  ?_spi_transfer_sync 0014                           __pbssCOMRAM 0031  
                 ??_spi_transfer_sync 001A                      i2_spi_fast_shift 02AE  
       __size_of_wl_module_data_ready 001C             __end_of_spi_transfer_sync 01DA  
                           __pintcode 0008                     __size_of_spi_init 0022  
                   ?_wl_module_config 0001                    ??_wl_module_config 0017  
          ?_wl_module_config_register 0015                              _LATBbits 000F8A  
      wl_module_config_register@value 0015      i2wl_module_config_register@value 0002  
                            _PIR1bits 000F9E                      __CFG_WDTPS$32768 000000  
                     _received_string 0031                           _INTCON2bits 000FF1  
                         _INTCON3bits 000FF0        i2wl_module_config_register@reg 0003  
                  _wl_module_get_data 0168                              __Hrparam 0000  
                      _spi_fast_shift 029C                              __Lrparam 0000  
                        ?__delay_10ms 0014            __size_of_spi_transfer_sync 0038  
                  __CFG_BOREN$SBORDIS 000000                     __CFG_P2BMX$PORTD2 000000  
                 ?_wl_module_get_data 001A                            _ANSELBbits 000F39  
                          _ANSELCbits 000F3A  __size_ofi2_wl_module_config_register 001A  
                            __ptext11 026C                              __ptext12 02AE  
                        _SSP1CON1bits 000FC6                  ??_wl_module_get_data 001C  
             __size_of_wl_module_init 001A                         __size_of_main 0056  
              __end_of_spi_fast_shift 02AE              __end_ofi2_spi_fast_shift 02C0  
                            _spi_init 01DA                          _SSP1STATbits 000FC7  
                          _INTCONbits 000FF2                              intlevel2 0000  
                     ?_spi_fast_shift 0001                            _OSCCONbits 000FD3  
        __end_of_wl_module_data_ready 0238                     __CFG_T3CMX$PORTC0 000000  
         ??_wl_module_config_register 0016                     __CFG_FOSC$INTIO67 000000  
           __size_of_wl_module_config 0040  
